; Function Attrs: mustprogress uwtable
define internal void @_ZN9grpc_core12_GLOBAL__N_120ExternalStateWatcher7Watcher25OnConnectivityStateChangeE23grpc_connectivity_stateRKN4absl12lts_202407226StatusE(ptr noundef nonnull readonly align 8 captures(none) dereferenceable(40) %0, i32 %1, ptr nonnull readnone align 8 captures(none) %2) unnamed_addr #13 align 2 personality ptr @__gxx_personality_v0 {
  %4 = alloca %"class.absl::lts_20240722::Status", align 8
  %5 = getelementptr inbounds nuw i8, ptr %0, i64 32
  %.val = load ptr, ptr %5, align 8, !tbaa !307
  store i64 1, ptr %4, align 8, !tbaa !200, !alias.scope !743
  invoke fastcc void @_ZN9grpc_core12_GLOBAL__N_120ExternalStateWatcher20MaybeStartCompletionEN4absl12lts_202407226StatusE(ptr noundef nonnull align 8 dereferenceable(112) %.val, ptr noundef %4)
          to label %_ZN4absl12lts_202407226StatusD2Ev.exit unwind label %6

_ZN4absl12lts_202407226StatusD2Ev.exit:           ; preds = %3
  ret void

6:                                                ; preds = %3
  %7 = landingpad { ptr, i32 }
          cleanup
  call void @_ZN4absl12lts_202407226StatusD2Ev(ptr noundef nonnull align 8 dereferenceable(8) %4) #42
  resume { ptr, i32 } %7
}